target datalayout = "e-m:e-p270:32:32-p271:32:32-p272:64:64-i64:64-i128:128-f80:128-n8:16:32:64-S128"
target triple = "x86_64-unknown-linux-gnu"

%"class.std::set.0" = type { %"class.std::_Rb_tree.1" }
%"class.std::_Rb_tree.1" = type { %"struct.std::_Rb_tree<QuantLib::Observer *, QuantLib::Observer *, std::_Identity<QuantLib::Observer *>, std::less<QuantLib::Observer *>>::_Rb_tree_impl" }
%"struct.std::_Rb_tree<QuantLib::Observer *, QuantLib::Observer *, std::_Identity<QuantLib::Observer *>, std::less<QuantLib::Observer *>>::_Rb_tree_impl" = type { [8 x i8], %"struct.std::_Rb_tree_header" }
%"struct.std::_Rb_tree_header" = type { %"struct.std::_Rb_tree_node_base", i64 }
%"struct.std::_Rb_tree_node_base" = type { i32, ptr, ptr, ptr }
%"class.std::set" = type { %"class.std::_Rb_tree" }
%"class.std::_Rb_tree" = type { %"struct.std::_Rb_tree<boost::shared_ptr<QuantLib::Observable>, boost::shared_ptr<QuantLib::Observable>, std::_Identity<boost::shared_ptr<QuantLib::Observable>>, std::less<boost::shared_ptr<QuantLib::Observable>>>::_Rb_tree_impl" }
%"struct.std::_Rb_tree<boost::shared_ptr<QuantLib::Observable>, boost::shared_ptr<QuantLib::Observable>, std::_Identity<boost::shared_ptr<QuantLib::Observable>>, std::less<boost::shared_ptr<QuantLib::Observable>>>::_Rb_tree_impl" = type { [8 x i8], %"struct.std::_Rb_tree_header" }
%"class.boost::detail::shared_count" = type { ptr }
%"class.QuantLib::Observable" = type { ptr, %"class.std::set.0" }
%"class.QuantLib::Observer" = type { ptr, %"class.std::set" }
%"class.QuantLib::DayCounter" = type { %"class.boost::shared_ptr.6" }
%"class.boost::shared_ptr.6" = type { ptr, %"class.boost::detail::shared_count" }
%"class.std::vector.43" = type { %"struct.std::_Vector_base.44" }
%"struct.std::_Vector_base.44" = type { %"struct.std::_Vector_base<boost::shared_ptr<QuantLib::CashFlow>, std::allocator<boost::shared_ptr<QuantLib::CashFlow>>>::_Vector_impl" }
%"struct.std::_Vector_base<boost::shared_ptr<QuantLib::CashFlow>, std::allocator<boost::shared_ptr<QuantLib::CashFlow>>>::_Vector_impl" = type { %"struct.std::_Vector_base<boost::shared_ptr<QuantLib::CashFlow>, std::allocator<boost::shared_ptr<QuantLib::CashFlow>>>::_Vector_impl_data" }
%"struct.std::_Vector_base<boost::shared_ptr<QuantLib::CashFlow>, std::allocator<boost::shared_ptr<QuantLib::CashFlow>>>::_Vector_impl_data" = type { ptr, ptr, ptr }
%"class.QuantLib::Date" = type { i64 }
%"class.std::vector.16" = type { %"struct.std::_Vector_base.17" }
%"struct.std::_Vector_base.17" = type { %"struct.std::_Vector_base<double, std::allocator<double>>::_Vector_impl" }
%"struct.std::_Vector_base<double, std::allocator<double>>::_Vector_impl" = type { %"struct.std::_Vector_base<double, std::allocator<double>>::_Vector_impl_data" }
%"struct.std::_Vector_base<double, std::allocator<double>>::_Vector_impl_data" = type { ptr, ptr, ptr }
%"class.QuantLib::SyntheticCDO" = type { %"class.QuantLib::Instrument.base", %"class.boost::shared_ptr.42", i32, %"class.std::vector.43", double, double, double, %"class.QuantLib::DayCounter", i32, double, double, double, double, i64, %"class.std::vector.16", %"class.QuantLib::Observable", %"class.QuantLib::Observer" }
%"class.QuantLib::Instrument.base" = type { %"class.QuantLib::LazyObject.base", double, double, %"class.QuantLib::Date", %"class.std::map", %"class.boost::shared_ptr.41" }
%"class.QuantLib::LazyObject.base" = type <{ ptr, i8, i8, i8, i8 }>
%"class.std::map" = type { %"class.std::_Rb_tree.36" }
%"class.std::_Rb_tree.36" = type { %"struct.std::_Rb_tree<std::__cxx11::basic_string<char>, std::pair<const std::__cxx11::basic_string<char>, boost::any>, std::_Select1st<std::pair<const std::__cxx11::basic_string<char>, boost::any>>, std::less<std::__cxx11::basic_string<char>>>::_Rb_tree_impl" }
%"struct.std::_Rb_tree<std::__cxx11::basic_string<char>, std::pair<const std::__cxx11::basic_string<char>, boost::any>, std::_Select1st<std::pair<const std::__cxx11::basic_string<char>, boost::any>>, std::less<std::__cxx11::basic_string<char>>>::_Rb_tree_impl" = type { [8 x i8], %"struct.std::_Rb_tree_header" }
%"class.boost::shared_ptr.41" = type { ptr, %"class.boost::detail::shared_count" }
%"class.boost::shared_ptr.42" = type { ptr, %"class.boost::detail::shared_count" }

; Function Attrs: mustprogress uwtable
define noundef double @_ZNK8QuantLib12SyntheticCDO17remainingNotionalEv(ptr noundef nonnull align 8 dereferenceable(264) %this) #2 align 2 {
entry:
  %this.addr = alloca ptr, align 8
  store ptr %this, ptr %this.addr, align 8, !tbaa !3
  %this1 = load ptr, ptr %this.addr, align 8
  %vtable = load ptr, ptr %this1, align 8, !tbaa !20
  %vfn = getelementptr inbounds ptr, ptr %vtable, i64 3
  %0 = load ptr, ptr %vfn, align 8
  call void %0(ptr noundef nonnull align 8 dereferenceable(104) %this1)
  %remainingNotional_ = getelementptr inbounds nuw %"class.QuantLib::SyntheticCDO", ptr %this1, i32 0, i32 12
  %1 = load double, ptr %remainingNotional_, align 8, !tbaa !97
  ret double %1
}