; Function Attrs: mustprogress uwtable
define noundef double @_ZNK8QuantLib12SyntheticCDO17remainingNotionalEv(ptr noundef nonnull align 8 dereferenceable(264) %this) local_unnamed_addr #8 align 2 {
entry:
  %vtable = load ptr, ptr %this, align 8, !tbaa !33
  %vfn = getelementptr inbounds i8, ptr %vtable, i64 24
  %0 = load ptr, ptr %vfn, align 8
  tail call void %0(ptr noundef nonnull align 8 dereferenceable(104) %this)
  %remainingNotional_ = getelementptr inbounds nuw i8, ptr %this, i64 224
  %1 = load double, ptr %remainingNotional_, align 8, !tbaa !150
  ret double %1
}